; Function Attrs: mustprogress nofree norecurse nosync nounwind willreturn memory(read, inaccessiblemem: none) uwtable
define internal ptr @cid_get_postscript_name(ptr noundef readonly captures(none) %0) #5 {
  %2 = getelementptr inbounds nuw i8, ptr %0, i64 264
  %3 = load ptr, ptr %2, align 8
  %.not = icmp eq ptr %3, null
  br i1 %.not, label %7, label %4

4:                                                ; preds = %1
  %5 = load i8, ptr %3, align 1
  %6 = icmp eq i8 %5, 47
  %spec.select.idx = zext i1 %6 to i64
  %spec.select = getelementptr inbounds nuw i8, ptr %3, i64 %spec.select.idx
  br label %7

7:                                                ; preds = %4, %1
  %.0 = phi ptr [ null, %1 ], [ %spec.select, %4 ]
  ret ptr %.0
}